target datalayout = "e-m:e-p270:32:32-p271:32:32-p272:64:64-i64:64-i128:128-f80:128-n8:16:32:64-S128"
target triple = "x86_64-pc-linux-gnu"

%struct.H5Z_data_xform_t = type { ptr, ptr, ptr }
%struct.H5Z_datval_ptrs = type { i32, ptr }

@H5Z_init_g = external global i8, align 1
@H5_libterm_g = external global i8, align 1

; Function Attrs: nounwind uwtable
define i32 @H5Z_xform_destroy(ptr noundef %0) #0 {
  %2 = alloca ptr, align 8
  store ptr %0, ptr %2, align 8, !tbaa !3
  %3 = load i8, ptr @H5Z_init_g, align 1, !tbaa !15, !range !17, !noundef !18
  %4 = trunc i8 %3 to i1
  br i1 %4, label %9, label %5

5:                                                ; preds = %1
  %6 = load i8, ptr @H5_libterm_g, align 1, !tbaa !15, !range !17, !noundef !18
  %7 = trunc i8 %6 to i1
  %8 = xor i1 %7, true
  br label %9

9:                                                ; preds = %5, %1
  %10 = phi i1 [ true, %1 ], [ %8, %5 ]
  %11 = xor i1 %10, true
  %12 = xor i1 %11, true
  %13 = zext i1 %12 to i32
  %14 = sext i32 %13 to i64
  %15 = call i64 @llvm.expect.i64(i64 %14, i64 1)
  %16 = icmp ne i64 %15, 0
  br i1 %16, label %17, label %49

17:                                               ; preds = %9
  %18 = load ptr, ptr %2, align 8, !tbaa !3
  %19 = icmp ne ptr %18, null
  br i1 %19, label %20, label %48

20:                                               ; preds = %17
  %21 = load ptr, ptr %2, align 8, !tbaa !3
  %22 = getelementptr inbounds nuw %struct.H5Z_data_xform_t, ptr %21, i32 0, i32 1
  %23 = load ptr, ptr %22, align 8, !tbaa !19
  call void @H5Z__xform_destroy_parse_tree(ptr noundef %23)
  %24 = load ptr, ptr %2, align 8, !tbaa !3
  %25 = getelementptr inbounds nuw %struct.H5Z_data_xform_t, ptr %24, i32 0, i32 0
  %26 = load ptr, ptr %25, align 8, !tbaa !222
  %27 = call ptr @H5MM_xfree(ptr noundef %26)
  %28 = load ptr, ptr %2, align 8, !tbaa !3
  %29 = getelementptr inbounds nuw %struct.H5Z_data_xform_t, ptr %28, i32 0, i32 2
  %30 = load ptr, ptr %29, align 8, !tbaa !37
  %31 = getelementptr inbounds nuw %struct.H5Z_datval_ptrs, ptr %30, i32 0, i32 0
  %32 = load i32, ptr %31, align 8, !tbaa !38
  %33 = icmp ugt i32 %32, 0
  br i1 %33, label %34, label %41

34:                                               ; preds = %20
  %35 = load ptr, ptr %2, align 8, !tbaa !3
  %36 = getelementptr inbounds nuw %struct.H5Z_data_xform_t, ptr %35, i32 0, i32 2
  %37 = load ptr, ptr %36, align 8, !tbaa !37
  %38 = getelementptr inbounds nuw %struct.H5Z_datval_ptrs, ptr %37, i32 0, i32 1
  %39 = load ptr, ptr %38, align 8, !tbaa !40
  %40 = call ptr @H5MM_xfree(ptr noundef %39)
  br label %41

41:                                               ; preds = %34, %20
  %42 = load ptr, ptr %2, align 8, !tbaa !3
  %43 = getelementptr inbounds nuw %struct.H5Z_data_xform_t, ptr %42, i32 0, i32 2
  %44 = load ptr, ptr %43, align 8, !tbaa !37
  %45 = call ptr @H5MM_xfree(ptr noundef %44)
  %46 = load ptr, ptr %2, align 8, !tbaa !3
  %47 = call ptr @H5MM_xfree(ptr noundef %46)
  br label %48

48:                                               ; preds = %41, %17
  br label %49

49:                                               ; preds = %48, %9
  ret i32 0
}