; Function Attrs: nounwind uwtable
define noundef i32 @H5Z_xform_destroy(ptr noundef %0) local_unnamed_addr #0 {
  %2 = load i8, ptr @H5Z_init_g, align 1, !tbaa !3, !range !7, !noundef !8
  %3 = trunc nuw i8 %2 to i1
  %4 = load i8, ptr @H5_libterm_g, align 1, !range !7
  %5 = trunc nuw i8 %4 to i1
  %6 = xor i1 %5, true
  %7 = select i1 %3, i1 true, i1 %6
  %8 = icmp ne ptr %0, null
  %or.cond = and i1 %8, %7
  br i1 %or.cond, label %9, label %25, !prof !209

9:                                                ; preds = %1
  %10 = getelementptr inbounds nuw i8, ptr %0, i64 8
  %11 = load ptr, ptr %10, align 8, !tbaa !12
  tail call fastcc void @H5Z__xform_destroy_parse_tree(ptr noundef %11)
  %12 = load ptr, ptr %0, align 8, !tbaa !201
  %13 = tail call ptr @H5MM_xfree(ptr noundef %12) #12
  %14 = getelementptr inbounds nuw i8, ptr %0, i64 16
  %15 = load ptr, ptr %14, align 8, !tbaa !32
  %16 = load i32, ptr %15, align 8, !tbaa !33
  %.not = icmp eq i32 %16, 0
  br i1 %.not, label %21, label %17

17:                                               ; preds = %9
  %18 = getelementptr inbounds nuw i8, ptr %15, i64 8
  %19 = load ptr, ptr %18, align 8, !tbaa !35
  %20 = tail call ptr @H5MM_xfree(ptr noundef %19) #12
  %.pre = load ptr, ptr %14, align 8, !tbaa !32
  br label %21

21:                                               ; preds = %17, %9
  %22 = phi ptr [ %.pre, %17 ], [ %15, %9 ]
  %23 = tail call ptr @H5MM_xfree(ptr noundef %22) #12
  %24 = tail call ptr @H5MM_xfree(ptr noundef nonnull %0) #12
  br label %25

25:                                               ; preds = %21, %1
  ret i32 0
}